target datalayout = "e-m:e-p270:32:32-p271:32:32-p272:64:64-i64:64-i128:128-f80:128-n8:16:32:64-S128"
target triple = "x86_64-pc-linux-gnu"

%class.G1HeapRegion = type { ptr, ptr, ptr, ptr, ptr, ptr, i32, %class.G1HeapRegionType, ptr, i32, ptr, ptr, ptr, i64, i32, ptr, i32, i32, i64 }
%class.G1HeapRegionType = type { i32 }
%class.G1Policy = type { ptr, %class.G1Predictions, ptr, %class.G1RemSetTrackingPolicy, ptr, %class.G1OldGenAllocationTracker, ptr, ptr, double, i32, i32, i32, ptr, ptr, double, i32, %class.G1YoungGenSizer, i32, i64, i64, %class.G1ConcurrentStartToMixedTimeTracker, ptr, ptr, ptr, ptr, double, double, i32, i32, %class.AgeTable }
%class.G1Predictions = type { double }
%class.G1RemSetTrackingPolicy = type { i8 }
%class.G1OldGenAllocationTracker = type { i64, i64, i64, i64, i64 }
%class.G1YoungGenSizer = type { ptr, i32, i8, i32, i32 }
%class.G1ConcurrentStartToMixedTimeTracker = type { i8, double, double, double }
%class.AgeTable = type { [16 x i64], i8, [16 x ptr] }
%class.G1CollectionSet = type { ptr, ptr, %class.G1CollectionSetCandidates, ptr, i32, i32, i32, i32, i32, %class.G1CollectionCandidateRegionList, i32, i64 }
%class.G1CollectionSetCandidates = type { [8 x i8], %class.G1CollectionCandidateList, %class.G1CollectionCandidateList, ptr, i32, i32 }
%class.G1CollectionCandidateList = type { %class.GrowableArray }
%class.GrowableArray = type { %class.GrowableArrayWithAllocator, %class.GrowableArrayMetadata }
%class.GrowableArrayWithAllocator = type { %class.GrowableArrayView }
%class.GrowableArrayView = type { %class.GrowableArrayBase, ptr }
%class.GrowableArrayBase = type { i32, i32 }
%class.GrowableArrayMetadata = type { i64 }
%class.G1CollectionCandidateRegionList = type { %class.GrowableArray.2 }
%class.GrowableArray.2 = type { %class.GrowableArrayWithAllocator.3, %class.GrowableArrayMetadata }
%class.GrowableArrayWithAllocator.3 = type { %class.GrowableArrayView.4 }
%class.GrowableArrayView.4 = type { %class.GrowableArrayBase, ptr }
%struct.G1CollectionSetCandidateInfo = type <{ ptr, double, i32, [4 x i8] }>
%class.G1CollectionSetCandidatesIterator = type <{ ptr, i32, [4 x i8] }>

; Function Attrs: mustprogress nounwind uwtable
define linkonce_odr hidden noundef nonnull align 8 dereferenceable(20) ptr @_ZN17GrowableArrayViewI28G1CollectionSetCandidateInfoE2atEi(ptr noundef nonnull align 8 dereferenceable(16) %0, i32 noundef %1) #1 comdat align 2 {
  %3 = alloca ptr, align 8
  %4 = alloca i32, align 4
  store ptr %0, ptr %3, align 8
  store i32 %1, ptr %4, align 4
  %5 = load ptr, ptr %3, align 8
  %6 = getelementptr inbounds %class.GrowableArrayView, ptr %5, i32 0, i32 1
  %7 = load ptr, ptr %6, align 8
  %8 = load i32, ptr %4, align 4
  %9 = sext i32 %8 to i64
  %10 = getelementptr inbounds %struct.G1CollectionSetCandidateInfo, ptr %7, i64 %9
  ret ptr %10
}

; Function Attrs: mustprogress nounwind uwtable
define linkonce_odr hidden noundef nonnull align 8 dereferenceable(20) ptr @_ZN25G1CollectionCandidateList2atEj(ptr noundef nonnull align 8 dereferenceable(24) %0, i32 noundef %1) #1 comdat align 2 {
  %3 = alloca ptr, align 8
  %4 = alloca i32, align 4
  store ptr %0, ptr %3, align 8
  store i32 %1, ptr %4, align 4
  %5 = load ptr, ptr %3, align 8
  %6 = getelementptr inbounds %class.G1CollectionCandidateList, ptr %5, i32 0, i32 0
  %7 = load i32, ptr %4, align 4
  %8 = call noundef nonnull align 8 dereferenceable(20) ptr @_ZN17GrowableArrayViewI28G1CollectionSetCandidateInfoE2atEi(ptr noundef nonnull align 8 dereferenceable(16) %6, i32 noundef %7)
  ret ptr %8
}

; Function Attrs: mustprogress nounwind uwtable
define linkonce_odr hidden noundef zeroext i1 @_ZN33G1CollectionSetCandidatesIteratoreqERKS_(ptr noundef nonnull align 8 dereferenceable(12) %0, ptr noundef nonnull align 8 dereferenceable(12) %1) #1 comdat align 2 {
  %3 = alloca ptr, align 8
  %4 = alloca ptr, align 8
  store ptr %0, ptr %3, align 8
  store ptr %1, ptr %4, align 8
  %5 = load ptr, ptr %3, align 8
  %6 = getelementptr inbounds %class.G1CollectionSetCandidatesIterator, ptr %5, i32 0, i32 1
  %7 = load i32, ptr %6, align 8
  %8 = load ptr, ptr %4, align 8
  %9 = getelementptr inbounds %class.G1CollectionSetCandidatesIterator, ptr %8, i32 0, i32 1
  %10 = load i32, ptr %9, align 8
  %11 = icmp eq i32 %7, %10
  ret i1 %11
}

; Function Attrs: mustprogress nounwind uwtable
define linkonce_odr hidden noundef i32 @_ZNK25G1CollectionSetCandidates6lengthEv(ptr noundef nonnull align 8 dereferenceable(72) %0) #1 comdat align 2 {
  %2 = alloca ptr, align 8
  store ptr %0, ptr %2, align 8
  %3 = load ptr, ptr %2, align 8
  %4 = call noundef i32 @_ZNK25G1CollectionSetCandidates22marking_regions_lengthEv(ptr noundef nonnull align 8 dereferenceable(72) %3)
  %5 = call noundef i32 @_ZNK25G1CollectionSetCandidates23retained_regions_lengthEv(ptr noundef nonnull align 8 dereferenceable(72) %3)
  %6 = add i32 %4, %5
  ret i32 %6
}

; Function Attrs: mustprogress nounwind uwtable
define linkonce_odr hidden void @_ZN33G1CollectionSetCandidatesIteratorC2EP25G1CollectionSetCandidatesj(ptr noundef nonnull align 8 dereferenceable(12) %0, ptr noundef %1, i32 noundef %2) unnamed_addr #1 comdat align 2 {
  %4 = alloca ptr, align 8
  %5 = alloca ptr, align 8
  %6 = alloca i32, align 4
  store ptr %0, ptr %4, align 8
  store ptr %1, ptr %5, align 8
  store i32 %2, ptr %6, align 4
  %7 = load ptr, ptr %4, align 8
  %8 = getelementptr inbounds %class.G1CollectionSetCandidatesIterator, ptr %7, i32 0, i32 0
  %9 = load ptr, ptr %5, align 8
  store ptr %9, ptr %8, align 8
  %10 = getelementptr inbounds %class.G1CollectionSetCandidatesIterator, ptr %7, i32 0, i32 1
  %11 = load i32, ptr %6, align 4
  store i32 %11, ptr %10, align 8
  ret void
}

; Function Attrs: mustprogress nounwind uwtable
define linkonce_odr hidden noundef ptr @_ZN15G1CollectionSet10candidatesEv(ptr noundef nonnull align 8 dereferenceable(160) %0) #1 comdat align 2 {
  %2 = alloca ptr, align 8
  store ptr %0, ptr %2, align 8
  %3 = load ptr, ptr %2, align 8
  %4 = getelementptr inbounds %class.G1CollectionSet, ptr %3, i32 0, i32 2
  ret ptr %4
}

; Function Attrs: mustprogress nounwind uwtable
define linkonce_odr hidden noundef nonnull align 8 dereferenceable(12) ptr @_ZN33G1CollectionSetCandidatesIteratorppEv(ptr noundef nonnull align 8 dereferenceable(12) %0) #1 comdat align 2 {
  %2 = alloca ptr, align 8
  store ptr %0, ptr %2, align 8
  %3 = load ptr, ptr %2, align 8
  %4 = getelementptr inbounds %class.G1CollectionSetCandidatesIterator, ptr %3, i32 0, i32 1
  %5 = load i32, ptr %4, align 8
  %6 = add i32 %5, 1
  store i32 %6, ptr %4, align 8
  ret ptr %3
}

; Function Attrs: mustprogress nounwind uwtable
define linkonce_odr hidden noundef ptr @_ZNK12G1HeapRegion7rem_setEv(ptr noundef nonnull align 8 dereferenceable(136) %0) #1 comdat align 2 {
  %2 = alloca ptr, align 8
  store ptr %0, ptr %2, align 8
  %3 = load ptr, ptr %2, align 8
  %4 = getelementptr inbounds %class.G1HeapRegion, ptr %3, i32 0, i32 5
  %5 = load ptr, ptr %4, align 8
  ret ptr %5
}

; Function Attrs: mustprogress nounwind uwtable
define linkonce_odr hidden noundef ptr @_ZN33G1CollectionSetCandidatesIteratordeEv(ptr noundef nonnull align 8 dereferenceable(12) %0) #1 comdat align 2 {
  %2 = alloca ptr, align 8
  %3 = alloca ptr, align 8
  %4 = alloca i32, align 4
  store ptr %0, ptr %3, align 8
  %5 = load ptr, ptr %3, align 8
  %6 = getelementptr inbounds %class.G1CollectionSetCandidatesIterator, ptr %5, i32 0, i32 0
  %7 = load ptr, ptr %6, align 8
  %8 = call noundef i32 @_ZNK25G1CollectionSetCandidates22marking_regions_lengthEv(ptr noundef nonnull align 8 dereferenceable(72) %7)
  store i32 %8, ptr %4, align 4
  %9 = getelementptr inbounds %class.G1CollectionSetCandidatesIterator, ptr %5, i32 0, i32 1
  %10 = load i32, ptr %9, align 8
  %11 = load i32, ptr %4, align 4
  %12 = icmp ult i32 %10, %11
  br i1 %12, label %13, label %22

13:                                               ; preds = %1
  %14 = getelementptr inbounds %class.G1CollectionSetCandidatesIterator, ptr %5, i32 0, i32 0
  %15 = load ptr, ptr %14, align 8
  %16 = getelementptr inbounds %class.G1CollectionSetCandidates, ptr %15, i32 0, i32 1
  %17 = getelementptr inbounds %class.G1CollectionSetCandidatesIterator, ptr %5, i32 0, i32 1
  %18 = load i32, ptr %17, align 8
  %19 = call noundef nonnull align 8 dereferenceable(20) ptr @_ZN25G1CollectionCandidateList2atEj(ptr noundef nonnull align 8 dereferenceable(24) %16, i32 noundef %18)
  %20 = getelementptr inbounds %struct.G1CollectionSetCandidateInfo, ptr %19, i32 0, i32 0
  %21 = load ptr, ptr %20, align 8
  store ptr %21, ptr %2, align 8
  br label %33

22:                                               ; preds = %1
  %23 = getelementptr inbounds %class.G1CollectionSetCandidatesIterator, ptr %5, i32 0, i32 0
  %24 = load ptr, ptr %23, align 8
  %25 = getelementptr inbounds %class.G1CollectionSetCandidates, ptr %24, i32 0, i32 2
  %26 = getelementptr inbounds %class.G1CollectionSetCandidatesIterator, ptr %5, i32 0, i32 1
  %27 = load i32, ptr %26, align 8
  %28 = load i32, ptr %4, align 4
  %29 = sub i32 %27, %28
  %30 = call noundef nonnull align 8 dereferenceable(20) ptr @_ZN25G1CollectionCandidateList2atEj(ptr noundef nonnull align 8 dereferenceable(24) %25, i32 noundef %29)
  %31 = getelementptr inbounds %struct.G1CollectionSetCandidateInfo, ptr %30, i32 0, i32 0
  %32 = load ptr, ptr %31, align 8
  store ptr %32, ptr %2, align 8
  br label %33

33:                                               ; preds = %22, %13
  %34 = load ptr, ptr %2, align 8
  ret ptr %34
}

; Function Attrs: mustprogress nounwind uwtable
define linkonce_odr hidden noundef zeroext i1 @_ZN33G1CollectionSetCandidatesIteratorneERKS_(ptr noundef nonnull align 8 dereferenceable(12) %0, ptr noundef nonnull align 8 dereferenceable(12) %1) #1 comdat align 2 {
  %3 = alloca ptr, align 8
  %4 = alloca ptr, align 8
  store ptr %0, ptr %3, align 8
  store ptr %1, ptr %4, align 8
  %5 = load ptr, ptr %3, align 8
  %6 = load ptr, ptr %4, align 8
  %7 = call noundef zeroext i1 @_ZN33G1CollectionSetCandidatesIteratoreqERKS_(ptr noundef nonnull align 8 dereferenceable(12) %5, ptr noundef nonnull align 8 dereferenceable(12) %6)
  %8 = xor i1 %7, true
  ret i1 %8
}

; Function Attrs: mustprogress nounwind uwtable
define linkonce_odr hidden { ptr, i32 } @_ZN25G1CollectionSetCandidates3endEv(ptr noundef nonnull align 8 dereferenceable(72) %0) #1 comdat align 2 {
  %2 = alloca %class.G1CollectionSetCandidatesIterator, align 8
  %3 = alloca ptr, align 8
  store ptr %0, ptr %3, align 8
  %4 = load ptr, ptr %3, align 8
  %5 = call noundef i32 @_ZNK25G1CollectionSetCandidates6lengthEv(ptr noundef nonnull align 8 dereferenceable(72) %4)
  call void @_ZN33G1CollectionSetCandidatesIteratorC2EP25G1CollectionSetCandidatesj(ptr noundef nonnull align 8 dereferenceable(12) %2, ptr noundef %4, i32 noundef %5)
  %6 = load { ptr, i32 }, ptr %2, align 8
  ret { ptr, i32 } %6
}

; Function Attrs: mustprogress nounwind uwtable
define linkonce_odr hidden { ptr, i32 } @_ZN25G1CollectionSetCandidates5beginEv(ptr noundef nonnull align 8 dereferenceable(72) %0) #1 comdat align 2 {
  %2 = alloca %class.G1CollectionSetCandidatesIterator, align 8
  %3 = alloca ptr, align 8
  store ptr %0, ptr %3, align 8
  %4 = load ptr, ptr %3, align 8
  call void @_ZN33G1CollectionSetCandidatesIteratorC2EP25G1CollectionSetCandidatesj(ptr noundef nonnull align 8 dereferenceable(12) %2, ptr noundef %4, i32 noundef 0)
  %5 = load { ptr, i32 }, ptr %2, align 8
  ret { ptr, i32 } %5
}

; Function Attrs: mustprogress nounwind uwtable
define hidden noundef ptr @_ZNK8G1Policy10candidatesEv(ptr noundef nonnull align 8 dereferenceable(552) %0) #1 align 2 {
  %2 = alloca ptr, align 8
  store ptr %0, ptr %2, align 8
  %3 = load ptr, ptr %2, align 8
  %4 = getelementptr inbounds %class.G1Policy, ptr %3, i32 0, i32 21
  %5 = load ptr, ptr %4, align 8
  %6 = call noundef ptr @_ZN15G1CollectionSet10candidatesEv(ptr noundef nonnull align 8 dereferenceable(160) %5)
  ret ptr %6
}

; Function Attrs: mustprogress nounwind uwtable
define hidden void @_ZN8G1Policy33abandon_collection_set_candidatesEv(ptr noundef nonnull align 8 dereferenceable(552) %0) #1 align 2 {
  %2 = alloca ptr, align 8
  %3 = alloca ptr, align 8
  %4 = alloca %class.G1CollectionSetCandidatesIterator, align 8
  %5 = alloca %class.G1CollectionSetCandidatesIterator, align 8
  %6 = alloca ptr, align 8
  store ptr %0, ptr %2, align 8
  %7 = load ptr, ptr %2, align 8
  %8 = call noundef ptr @_ZNK8G1Policy10candidatesEv(ptr noundef nonnull align 8 dereferenceable(552) %7)
  store ptr %8, ptr %3, align 8
  %9 = load ptr, ptr %3, align 8
  %10 = call { ptr, i32 } @_ZN25G1CollectionSetCandidates5beginEv(ptr noundef nonnull align 8 dereferenceable(72) %9)
  %11 = getelementptr inbounds { ptr, i32 }, ptr %4, i32 0, i32 0
  %12 = extractvalue { ptr, i32 } %10, 0
  store ptr %12, ptr %11, align 8
  %13 = getelementptr inbounds { ptr, i32 }, ptr %4, i32 0, i32 1
  %14 = extractvalue { ptr, i32 } %10, 1
  store i32 %14, ptr %13, align 8
  %15 = load ptr, ptr %3, align 8
  %16 = call { ptr, i32 } @_ZN25G1CollectionSetCandidates3endEv(ptr noundef nonnull align 8 dereferenceable(72) %15)
  %17 = getelementptr inbounds { ptr, i32 }, ptr %5, i32 0, i32 0
  %18 = extractvalue { ptr, i32 } %16, 0
  store ptr %18, ptr %17, align 8
  %19 = getelementptr inbounds { ptr, i32 }, ptr %5, i32 0, i32 1
  %20 = extractvalue { ptr, i32 } %16, 1
  store i32 %20, ptr %19, align 8
  br label %21

21:                                               ; preds = %27, %1
  %22 = call noundef zeroext i1 @_ZN33G1CollectionSetCandidatesIteratorneERKS_(ptr noundef nonnull align 8 dereferenceable(12) %4, ptr noundef nonnull align 8 dereferenceable(12) %5)
  br i1 %22, label %23, label %29

23:                                               ; preds = %21
  %24 = call noundef ptr @_ZN33G1CollectionSetCandidatesIteratordeEv(ptr noundef nonnull align 8 dereferenceable(12) %4)
  store ptr %24, ptr %6, align 8
  %25 = load ptr, ptr %6, align 8
  %26 = call noundef ptr @_ZNK12G1HeapRegion7rem_setEv(ptr noundef nonnull align 8 dereferenceable(136) %25)
  call void @_ZN18G1HeapRegionRemSet5clearEbb(ptr noundef nonnull align 8 dereferenceable(84) %26, i1 noundef zeroext true, i1 noundef zeroext false)
  br label %27

27:                                               ; preds = %23
  %28 = call noundef nonnull align 8 dereferenceable(12) ptr @_ZN33G1CollectionSetCandidatesIteratorppEv(ptr noundef nonnull align 8 dereferenceable(12) %4)
  br label %21

29:                                               ; preds = %21
  %30 = getelementptr inbounds %class.G1Policy, ptr %7, i32 0, i32 21
  %31 = load ptr, ptr %30, align 8
  call void @_ZN15G1CollectionSet22abandon_all_candidatesEv(ptr noundef nonnull align 8 dereferenceable(160) %31)
  ret void
}