; Function Attrs: mustprogress nounwind uwtable
define hidden void @_ZN8G1Policy33abandon_collection_set_candidatesEv(ptr nocapture noundef nonnull readonly align 8 dereferenceable(552) %0) local_unnamed_addr #1 align 2 {
  %2 = getelementptr inbounds i8, ptr %0, i64 232
  %3 = load ptr, ptr %2, align 8
  %4 = getelementptr inbounds i8, ptr %3, i64 16
  %5 = tail call noundef i32 @_ZNK25G1CollectionSetCandidates22marking_regions_lengthEv(ptr noundef nonnull align 8 dereferenceable(72) %4) #18
  %6 = tail call noundef i32 @_ZNK25G1CollectionSetCandidates23retained_regions_lengthEv(ptr noundef nonnull align 8 dereferenceable(72) %4) #18
  %7 = add i32 %6, %5
  %.not10 = icmp eq i32 %7, 0
  br i1 %.not10, label %._crit_edge, label %.lr.ph

.lr.ph:                                           ; preds = %1, %.lr.ph
  %.sroa.3.011 = phi i32 [ %17, %.lr.ph ], [ 0, %1 ]
  %8 = tail call noundef i32 @_ZNK25G1CollectionSetCandidates22marking_regions_lengthEv(ptr noundef nonnull align 8 dereferenceable(72) %4) #18
  %9 = icmp ult i32 %.sroa.3.011, %8
  %.sink.i = select i1 %9, i64 16, i64 40
  %10 = select i1 %9, i32 0, i32 %8
  %.sink6.i = sub i32 %.sroa.3.011, %10
  %11 = getelementptr inbounds i8, ptr %4, i64 %.sink.i
  %12 = load ptr, ptr %11, align 8
  %13 = sext i32 %.sink6.i to i64
  %14 = getelementptr inbounds %struct.G1CollectionSetCandidateInfo, ptr %12, i64 %13
  %.0.i = load ptr, ptr %14, align 8
  %15 = getelementptr inbounds i8, ptr %.0.i, i64 40
  %16 = load ptr, ptr %15, align 8
  tail call void @_ZN18G1HeapRegionRemSet5clearEbb(ptr noundef nonnull align 8 dereferenceable(84) %16, i1 noundef zeroext true, i1 noundef zeroext false) #18
  %17 = add nuw i32 %.sroa.3.011, 1
  %.not = icmp eq i32 %17, %7
  br i1 %.not, label %._crit_edge, label %.lr.ph

._crit_edge:                                      ; preds = %.lr.ph, %1
  %18 = load ptr, ptr %2, align 8
  tail call void @_ZN15G1CollectionSet22abandon_all_candidatesEv(ptr noundef nonnull align 8 dereferenceable(160) %18) #18
  ret void
}